; ModuleID = '15/2091.c'
source_filename = "15/2091.c"
target datalayout = "e-m:e-p270:32:32-p271:32:32-p272:64:64-i64:64-f80:128-n8:16:32:64-S128"
target triple = "x86_64-pc-linux-gnu"

@.str = private unnamed_addr constant [3 x i8] c"%d\00", align 1
@.str.1 = private unnamed_addr constant [4 x i8] c"%d\0A\00", align 1

; Function Attrs: noinline nounwind uwtable
define dso_local void @main() #0 {
  %1 = alloca i32, align 4
  %2 = alloca i32, align 4
  %3 = alloca i32, align 4
  %4 = alloca i32, align 4
  %5 = alloca i32, align 4
  %6 = alloca i32, align 4
  %7 = alloca i32, align 4
  %8 = alloca i32, align 4
  %9 = alloca [100 x [100 x i32]], align 16
  store i32 0, i32* %5, align 4
  store i32 0, i32* %6, align 4
  store i32 1, i32* %7, align 4
  store i32 0, i32* %4, align 4
  %10 = call i32 (i8*, ...) @__isoc99_scanf(i8* getelementptr inbounds ([3 x i8], [3 x i8]* @.str, i64 0, i64 0), i32* %1)
  store i32 1, i32* %2, align 4
  br label %11

11:                                               ; preds = %63, %0
  %12 = load i32, i32* %2, align 4
  %13 = load i32, i32* %1, align 4
  %14 = icmp sle i32 %12, %13
  br i1 %14, label %15, label %66

15:                                               ; preds = %11
  store i32 1, i32* %3, align 4
  br label %16

16:                                               ; preds = %59, %15
  %17 = load i32, i32* %3, align 4
  %18 = load i32, i32* %1, align 4
  %19 = icmp sle i32 %17, %18
  br i1 %19, label %20, label %62

20:                                               ; preds = %16
  %21 = load i32, i32* %2, align 4
  %22 = sext i32 %21 to i64
  %23 = getelementptr inbounds [100 x [100 x i32]], [100 x [100 x i32]]* %9, i64 0, i64 %22
  %24 = load i32, i32* %3, align 4
  %25 = sext i32 %24 to i64
  %26 = getelementptr inbounds [100 x i32], [100 x i32]* %23, i64 0, i64 %25
  %27 = call i32 (i8*, ...) @__isoc99_scanf(i8* getelementptr inbounds ([3 x i8], [3 x i8]* @.str, i64 0, i64 0), i32* %26)
  %28 = load i32, i32* %2, align 4
  %29 = sext i32 %28 to i64
  %30 = getelementptr inbounds [100 x [100 x i32]], [100 x [100 x i32]]* %9, i64 0, i64 %29
  %31 = load i32, i32* %3, align 4
  %32 = sext i32 %31 to i64
  %33 = getelementptr inbounds [100 x i32], [100 x i32]* %30, i64 0, i64 %32
  %34 = load i32, i32* %33, align 4
  %35 = icmp eq i32 %34, 0
  br i1 %35, label %36, label %45

36:                                               ; preds = %20
  %37 = load i32, i32* %4, align 4
  %38 = add nsw i32 %37, 1
  store i32 %38, i32* %4, align 4
  %39 = load i32, i32* %7, align 4
  %40 = icmp eq i32 %39, 1
  br i1 %40, label %41, label %44

41:                                               ; preds = %36
  %42 = load i32, i32* %5, align 4
  %43 = add nsw i32 %42, 1
  store i32 %43, i32* %5, align 4
  br label %44

44:                                               ; preds = %41, %36
  br label %45

45:                                               ; preds = %44, %20
  %46 = load i32, i32* %4, align 4
  %47 = icmp sgt i32 %46, 0
  br i1 %47, label %48, label %58

48:                                               ; preds = %45
  %49 = load i32, i32* %2, align 4
  %50 = sext i32 %49 to i64
  %51 = getelementptr inbounds [100 x [100 x i32]], [100 x [100 x i32]]* %9, i64 0, i64 %50
  %52 = load i32, i32* %3, align 4
  %53 = sext i32 %52 to i64
  %54 = getelementptr inbounds [100 x i32], [100 x i32]* %51, i64 0, i64 %53
  %55 = load i32, i32* %54, align 4
  %56 = icmp eq i32 %55, 255
  br i1 %56, label %57, label %58

57:                                               ; preds = %48
  store i32 0, i32* %7, align 4
  br label %58

58:                                               ; preds = %57, %48, %45
  br label %59

59:                                               ; preds = %58
  %60 = load i32, i32* %3, align 4
  %61 = add nsw i32 %60, 1
  store i32 %61, i32* %3, align 4
  br label %16

62:                                               ; preds = %16
  br label %63

63:                                               ; preds = %62
  %64 = load i32, i32* %2, align 4
  %65 = add nsw i32 %64, 1
  store i32 %65, i32* %2, align 4
  br label %11

66:                                               ; preds = %11
  %67 = load i32, i32* %4, align 4
  %68 = sdiv i32 %67, 2
  %69 = load i32, i32* %5, align 4
  %70 = sub nsw i32 %68, %69
  store i32 %70, i32* %6, align 4
  %71 = load i32, i32* %5, align 4
  %72 = sub nsw i32 %71, 2
  store i32 %72, i32* %5, align 4
  %73 = load i32, i32* %5, align 4
  %74 = load i32, i32* %6, align 4
  %75 = mul nsw i32 %73, %74
  store i32 %75, i32* %8, align 4
  %76 = load i32, i32* %8, align 4
  %77 = call i32 (i8*, ...) @printf(i8* getelementptr inbounds ([4 x i8], [4 x i8]* @.str.1, i64 0, i64 0), i32 %76)
  ret void
}

declare dso_local i32 @__isoc99_scanf(i8*, ...) #1

declare dso_local i32 @printf(i8*, ...) #1


!llvm.module.flags = !{!0}
!llvm.ident = !{!1}

!0 = !{i32 1, !"wchar_size", i32 4}
!1 = !{!"clang version 10.0.0-4ubuntu1 "}
